target datalayout = "e-m:e-p270:32:32-p271:32:32-p272:64:64-i64:64-i128:128-f80:128-n8:16:32:64-S128"
target triple = "x86_64-pc-linux-gnu"

%class.G1CMIsAliveClosure = type { %class.BoolObjectClosure, ptr }
%class.BoolObjectClosure = type { ptr }
%class.BitMap = type { ptr, i64 }
%class.G1MappingChangedListener = type { ptr }
%class.MemRegion = type { ptr, i64 }
%class.G1CMSubjectToDiscoveryClosure = type { %class.BoolObjectClosure, ptr }
%class.G1STWIsAliveClosure = type { %class.BoolObjectClosure, ptr }
%struct.G1HeapRegionAttr = type { i8, i8, i8 }
%class.G1Allocator = type { ptr, ptr, i8, i8, i64, ptr, ptr, %class.OldGCAllocRegion, ptr }
%class.OldGCAllocRegion = type { %class.G1GCAllocRegion.base, [7 x i8] }
%class.G1GCAllocRegion.base = type <{ %class.G1AllocRegion.base, [4 x i8], i64, ptr, i8 }>
%class.G1AllocRegion.base = type <{ ptr, ptr, i32, [4 x i8], ptr, i32 }>
%class.MutatorAllocRegion = type { %class.G1AllocRegion.base, i64, ptr }
%class.SurvivorGCAllocRegion = type { %class.G1GCAllocRegion.base, [7 x i8] }
%class.G1CollectedHeap = type { %class.CollectedHeap, ptr, ptr, ptr, ptr, ptr, %class.TimeInstant, %class.G1HeapRegionSet, %class.G1HeapRegionSet, %class.G1MonotonicArenaMemoryStats, %class.G1MonotonicArenaMemoryStats, ptr, %class.G1RegionMappingChangedListener, ptr, %class.G1HeapRegionManager, ptr, %class.G1YoungGCAllocationFailureInjector, ptr, i64, i64, %class.G1EvacStats, %class.G1EvacStats, ptr, i32, i32, %class.G1CollectorState, i32, i32, %class.G1EdenRegions, %class.G1SurvivorRegions, ptr, ptr, ptr, ptr, %class.G1CollectionSet, ptr, %class.G1CardSetConfiguration, %class.G1MonotonicArenaFreePool, ptr, ptr, ptr, ptr, ptr, %class.G1STWIsAliveClosure, %class.G1STWSubjectToDiscoveryClosure, ptr, %class.G1CMIsAliveClosure, %class.G1CMSubjectToDiscoveryClosure, %class.G1HeapRegionAttrBiasedMappedArray }
%class.CollectedHeap = type { ptr, ptr, i64, i64, %class.SoftRefPolicy, %class.MemRegion, i8, i64, i32, i32, i32, i32, ptr, ptr }
%class.SoftRefPolicy = type { i8, i8 }
%class.TimeInstant = type { %class.CompositeCounterRepresentation }
%class.CompositeCounterRepresentation = type { %class.Representation }
%class.Representation = type { %class.PairRep }
%class.PairRep = type { i64, i64 }
%class.G1HeapRegionSet = type { %class.G1HeapRegionSetBase.base, [7 x i8] }
%class.G1HeapRegionSetBase.base = type <{ ptr, ptr, i32, [4 x i8], ptr, i8 }>
%class.G1MonotonicArenaMemoryStats = type { [4 x i64], [4 x i64] }
%class.G1RegionMappingChangedListener = type { %class.G1MappingChangedListener }
%class.G1HeapRegionManager = type { ptr, ptr, %class.G1CommittedRegionMap, i32, [4 x i8], %class.G1HeapRegionTable, ptr, ptr, %class.G1FreeRegionList }
%class.G1CommittedRegionMap = type { ptr, %class.CHeapBitMap, %class.CHeapBitMap, i32, i32 }
%class.CHeapBitMap = type <{ %class.GrowableBitMap, i8, [7 x i8] }>
%class.GrowableBitMap = type { %class.BitMap }
%class.G1HeapRegionTable = type { %class.G1BiasedMappedArray.base, [4 x i8] }
%class.G1BiasedMappedArray.base = type { %class.G1BiasedMappedArrayBase.base }
%class.G1BiasedMappedArrayBase.base = type <{ ptr, ptr, ptr, i64, ptr, i64, i32 }>
%class.G1FreeRegionList = type { %class.G1HeapRegionSetBase.base, ptr, ptr, ptr, ptr }
%class.G1YoungGCAllocationFailureInjector = type { i8 }
%class.G1EvacStats = type { %class.PLABStats, i64, i64, %class.AdaptiveWeightedAverage, i64, i32, i64, i64, i64, i64, i64 }
%class.PLABStats = type { ptr, ptr, i64, i64, i64, i64 }
%class.AdaptiveWeightedAverage = type { float, i32, i32, i8, float }
%class.G1CollectorState = type { i8, i8, i8, i8, i8, i8, i8 }
%class.G1EdenRegions = type { i32, i64, %class.G1RegionsOnNodes }
%class.G1RegionsOnNodes = type { ptr, ptr }
%class.G1SurvivorRegions = type { ptr, i64, %class.G1RegionsOnNodes }
%class.G1CollectionSet = type { ptr, ptr, %class.G1CollectionSetCandidates, ptr, i32, i32, i32, i32, i32, %class.G1CollectionCandidateRegionList, i32, i64 }
%class.G1CollectionSetCandidates = type { [8 x i8], %class.G1CollectionCandidateList, %class.G1CollectionCandidateList, ptr, i32, i32 }
%class.G1CollectionCandidateList = type { %class.GrowableArray }
%class.GrowableArray = type { %class.GrowableArrayWithAllocator, %class.GrowableArrayMetadata }
%class.GrowableArrayWithAllocator = type { %class.GrowableArrayView }
%class.GrowableArrayView = type { %class.GrowableArrayBase, ptr }
%class.GrowableArrayBase = type { i32, i32 }
%class.GrowableArrayMetadata = type { i64 }
%class.G1CollectionCandidateRegionList = type { %class.GrowableArray.2 }
%class.GrowableArray.2 = type { %class.GrowableArrayWithAllocator.3, %class.GrowableArrayMetadata }
%class.GrowableArrayWithAllocator.3 = type { %class.GrowableArrayView.4 }
%class.GrowableArrayView.4 = type { %class.GrowableArrayBase, ptr }
%class.G1CardSetConfiguration = type { i32, i32, i32, i32, i32, i32, i32, i32, i32, i32, i32, ptr }
%class.G1MonotonicArenaFreePool = type { i32, ptr }
%class.G1STWSubjectToDiscoveryClosure = type { %class.BoolObjectClosure, ptr }
%class.G1HeapRegionAttrBiasedMappedArray = type { %class.G1BiasedMappedArray.base.6, [4 x i8] }
%class.G1BiasedMappedArray.base.6 = type { %class.G1BiasedMappedArrayBase.base }
%class.G1GCAllocRegion = type <{ %class.G1AllocRegion.base, [4 x i8], i64, ptr, i8, [7 x i8] }>

@g_assert_poison = external global ptr, align 8
@.str.13 = private unnamed_addr constant [51 x i8] c"src/hotspot/share/gc/g1/g1CollectedHeap.inline.hpp\00", align 1
@.str.14 = private unnamed_addr constant [20 x i8] c"Old GC Alloc Region\00", align 1
@_ZTV15G1GCAllocRegion = external unnamed_addr constant { [7 x ptr] }, align 8
@.str.15 = private unnamed_addr constant [21 x i8] c"Mutator Alloc Region\00", align 1
@_ZTV18MutatorAllocRegion = external unnamed_addr constant { [7 x ptr] }, align 8
@.str.16 = private unnamed_addr constant [25 x i8] c"Survivor GC Alloc Region\00", align 1

; Function Attrs: mustprogress nounwind uwtable
define linkonce_odr hidden void @_ZN15G1GCAllocRegionC2EPKcP11G1EvacStatsaj(ptr noundef nonnull align 8 dereferenceable(57) %0, ptr noundef %1, ptr noundef %2, i8 noundef signext %3, i32 noundef %4) unnamed_addr #1 comdat align 2 {
  %6 = alloca ptr, align 8
  %7 = alloca ptr, align 8
  %8 = alloca ptr, align 8
  %9 = alloca i8, align 1
  %10 = alloca i32, align 4
  store ptr %0, ptr %6, align 8
  store ptr %1, ptr %7, align 8
  store ptr %2, ptr %8, align 8
  store i8 %3, ptr %9, align 1
  store i32 %4, ptr %10, align 4
  %11 = load ptr, ptr %6, align 8
  %12 = load ptr, ptr %7, align 8
  %13 = load i32, ptr %10, align 4
  call void @_ZN13G1AllocRegionC2EPKcj(ptr noundef nonnull align 8 dereferenceable(36) %11, ptr noundef %12, i32 noundef %13)
  store ptr getelementptr inbounds inrange(-16, 40) ({ [7 x ptr] }, ptr @_ZTV15G1GCAllocRegion, i32 0, i32 0, i32 2), ptr %11, align 8
  %14 = getelementptr inbounds %class.G1GCAllocRegion, ptr %11, i32 0, i32 2
  store i64 0, ptr %14, align 8
  %15 = getelementptr inbounds %class.G1GCAllocRegion, ptr %11, i32 0, i32 3
  %16 = load ptr, ptr %8, align 8
  store ptr %16, ptr %15, align 8
  %17 = getelementptr inbounds %class.G1GCAllocRegion, ptr %11, i32 0, i32 4
  %18 = load i8, ptr %9, align 1
  store i8 %18, ptr %17, align 8
  ret void
}

; Function Attrs: mustprogress nounwind uwtable
define linkonce_odr hidden noundef signext i8 @_ZNK16G1HeapRegionAttr4typeEv(ptr noundef nonnull align 1 dereferenceable(3) %0) #1 comdat align 2 {
  %2 = alloca ptr, align 8
  store ptr %0, ptr %2, align 8
  %3 = load ptr, ptr %2, align 8
  %4 = getelementptr inbounds %struct.G1HeapRegionAttr, ptr %3, i32 0, i32 1
  %5 = load i8, ptr %4, align 1
  ret i8 %5
}

; Function Attrs: mustprogress nounwind uwtable
define linkonce_odr hidden void @_ZN21SurvivorGCAllocRegionC2EP11G1EvacStatsj(ptr noundef nonnull align 8 dereferenceable(57) %0, ptr noundef %1, i32 noundef %2) unnamed_addr #1 comdat align 2 {
  %4 = alloca ptr, align 8
  %5 = alloca ptr, align 8
  %6 = alloca i32, align 4
  store ptr %0, ptr %4, align 8
  store ptr %1, ptr %5, align 8
  store i32 %2, ptr %6, align 4
  %7 = load ptr, ptr %4, align 8
  %8 = load ptr, ptr %5, align 8
  %9 = load i32, ptr %6, align 4
  call void @_ZN15G1GCAllocRegionC2EPKcP11G1EvacStatsaj(ptr noundef nonnull align 8 dereferenceable(57) %7, ptr noundef @.str.16, ptr noundef %8, i8 noundef signext 0, i32 noundef %9)
  store ptr getelementptr inbounds inrange(-16, 40) ({ [7 x ptr] }, ptr @_ZTV21SurvivorGCAllocRegion, i32 0, i32 0, i32 2), ptr %7, align 8
  ret void
}

; Function Attrs: mustprogress nounwind uwtable
define linkonce_odr hidden void @_ZN18MutatorAllocRegionC2Ej(ptr noundef nonnull align 8 dereferenceable(56) %0, i32 noundef %1) unnamed_addr #1 comdat align 2 {
  %3 = alloca ptr, align 8
  %4 = alloca i32, align 4
  store ptr %0, ptr %3, align 8
  store i32 %1, ptr %4, align 4
  %5 = load ptr, ptr %3, align 8
  %6 = load i32, ptr %4, align 4
  call void @_ZN13G1AllocRegionC2EPKcj(ptr noundef nonnull align 8 dereferenceable(36) %5, ptr noundef @.str.15, i32 noundef %6)
  store ptr getelementptr inbounds inrange(-16, 40) ({ [7 x ptr] }, ptr @_ZTV18MutatorAllocRegion, i32 0, i32 0, i32 2), ptr %5, align 8
  %7 = getelementptr inbounds %class.MutatorAllocRegion, ptr %5, i32 0, i32 1
  store i64 0, ptr %7, align 8
  %8 = getelementptr inbounds %class.MutatorAllocRegion, ptr %5, i32 0, i32 2
  store volatile ptr null, ptr %8, align 8
  ret void
}

; Function Attrs: mustprogress nounwind uwtable
define linkonce_odr hidden void @_ZN16OldGCAllocRegionC2EP11G1EvacStats(ptr noundef nonnull align 8 dereferenceable(57) %0, ptr noundef %1) unnamed_addr #1 comdat align 2 {
  %3 = alloca ptr, align 8
  %4 = alloca ptr, align 8
  store ptr %0, ptr %3, align 8
  store ptr %1, ptr %4, align 8
  %5 = load ptr, ptr %3, align 8
  %6 = load ptr, ptr %4, align 8
  call void @_ZN15G1GCAllocRegionC2EPKcP11G1EvacStatsaj(ptr noundef nonnull align 8 dereferenceable(57) %5, ptr noundef @.str.14, ptr noundef %6, i8 noundef signext 1, i32 noundef -2)
  store ptr getelementptr inbounds inrange(-16, 40) ({ [7 x ptr] }, ptr @_ZTV16OldGCAllocRegion, i32 0, i32 0, i32 2), ptr %5, align 8
  ret void
}

; Function Attrs: mustprogress nounwind uwtable
define linkonce_odr hidden noundef ptr @_ZN15G1CollectedHeap18alloc_buffer_statsE16G1HeapRegionAttr(ptr noundef nonnull align 8 dereferenceable(1488) %0, i24 %1) #1 comdat align 2 {
  %3 = alloca ptr, align 8
  %4 = alloca %struct.G1HeapRegionAttr, align 1
  %5 = alloca i24, align 4
  %6 = alloca ptr, align 8
  store i24 %1, ptr %5, align 4
  call void @llvm.memcpy.p0.p0.i64(ptr align 1 %4, ptr align 4 %5, i64 3, i1 false)
  store ptr %0, ptr %6, align 8
  %7 = load ptr, ptr %6, align 8
  %8 = call noundef signext i8 @_ZNK16G1HeapRegionAttr4typeEv(ptr noundef nonnull align 1 dereferenceable(3) %4)
  %9 = sext i8 %8 to i32
  switch i32 %9, label %14 [
    i32 0, label %10
    i32 1, label %12
  ]

10:                                               ; preds = %2
  %11 = getelementptr inbounds %class.G1CollectedHeap, ptr %7, i32 0, i32 20
  store ptr %11, ptr %3, align 8
  br label %18

12:                                               ; preds = %2
  %13 = getelementptr inbounds %class.G1CollectedHeap, ptr %7, i32 0, i32 21
  store ptr %13, ptr %3, align 8
  br label %18

14:                                               ; preds = %2
  br label %15

15:                                               ; preds = %14
  %16 = load ptr, ptr @g_assert_poison, align 8
  store i8 88, ptr %16, align 1
  call void @_Z28report_should_not_reach_herePKci(ptr noundef @.str.13, i32 noundef 89) #9
  unreachable

17:                                               ; No predecessors!
  store ptr null, ptr %3, align 8
  br label %18

18:                                               ; preds = %17, %12, %10
  %19 = load ptr, ptr %3, align 8
  ret ptr %19
}

; Function Attrs: mustprogress nounwind uwtable
define linkonce_odr hidden void @_ZN16G1HeapRegionAttrC2Eabb(ptr noundef nonnull align 1 dereferenceable(3) %0, i8 noundef signext %1, i1 noundef zeroext %2, i1 noundef zeroext %3) unnamed_addr #1 comdat align 2 {
  %5 = alloca ptr, align 8
  %6 = alloca i8, align 1
  %7 = alloca i8, align 1
  %8 = alloca i8, align 1
  store ptr %0, ptr %5, align 8
  store i8 %1, ptr %6, align 1
  %9 = zext i1 %2 to i8
  store i8 %9, ptr %7, align 1
  %10 = zext i1 %3 to i8
  store i8 %10, ptr %8, align 1
  %11 = load ptr, ptr %5, align 8
  %12 = getelementptr inbounds %struct.G1HeapRegionAttr, ptr %11, i32 0, i32 0
  %13 = load i8, ptr %7, align 1
  %14 = trunc i8 %13 to i1
  %15 = select i1 %14, i32 1, i32 0
  %16 = trunc i32 %15 to i8
  store i8 %16, ptr %12, align 1
  %17 = getelementptr inbounds %struct.G1HeapRegionAttr, ptr %11, i32 0, i32 1
  %18 = load i8, ptr %6, align 1
  store i8 %18, ptr %17, align 1
  %19 = getelementptr inbounds %struct.G1HeapRegionAttr, ptr %11, i32 0, i32 2
  %20 = load i8, ptr %8, align 1
  %21 = trunc i8 %20 to i1
  %22 = select i1 %21, i32 1, i32 0
  %23 = trunc i32 %22 to i8
  store i8 %23, ptr %19, align 1
  ret void
}

; Function Attrs: mustprogress nounwind uwtable
define linkonce_odr hidden noundef ptr @_ZNK15G1CollectedHeap4numaEv(ptr noundef nonnull align 8 dereferenceable(1488) %0) #1 comdat align 2 {
  %2 = alloca ptr, align 8
  store ptr %0, ptr %2, align 8
  %3 = load ptr, ptr %2, align 8
  %4 = getelementptr inbounds %class.G1CollectedHeap, ptr %3, i32 0, i32 13
  %5 = load ptr, ptr %4, align 8
  ret ptr %5
}

; Function Attrs: mustprogress nounwind uwtable
define hidden void @_ZN11G1AllocatorC2EP15G1CollectedHeap(ptr noundef nonnull align 8 dereferenceable(120) %0, ptr noundef %1) unnamed_addr #1 align 2 {
  %3 = alloca ptr, align 8
  %4 = alloca ptr, align 8
  %5 = alloca %struct.G1HeapRegionAttr, align 1
  %6 = alloca i24, align 4
  %7 = alloca ptr, align 8
  %8 = alloca %struct.G1HeapRegionAttr, align 1
  %9 = alloca i24, align 4
  %10 = alloca i32, align 4
  store ptr %0, ptr %3, align 8
  store ptr %1, ptr %4, align 8
  %11 = load ptr, ptr %3, align 8
  %12 = getelementptr inbounds %class.G1Allocator, ptr %11, i32 0, i32 0
  %13 = load ptr, ptr %4, align 8
  store ptr %13, ptr %12, align 8
  %14 = getelementptr inbounds %class.G1Allocator, ptr %11, i32 0, i32 1
  %15 = load ptr, ptr %4, align 8
  %16 = call noundef ptr @_ZNK15G1CollectedHeap4numaEv(ptr noundef nonnull align 8 dereferenceable(1488) %15)
  store ptr %16, ptr %14, align 8
  %17 = getelementptr inbounds %class.G1Allocator, ptr %11, i32 0, i32 2
  store i8 0, ptr %17, align 8
  %18 = getelementptr inbounds %class.G1Allocator, ptr %11, i32 0, i32 3
  store i8 0, ptr %18, align 1
  %19 = getelementptr inbounds %class.G1Allocator, ptr %11, i32 0, i32 4
  %20 = getelementptr inbounds %class.G1Allocator, ptr %11, i32 0, i32 1
  %21 = load ptr, ptr %20, align 8
  %22 = call noundef i32 @_ZNK6G1NUMA16num_active_nodesEv(ptr noundef nonnull align 8 dereferenceable(56) %21)
  %23 = zext i32 %22 to i64
  store i64 %23, ptr %19, align 8
  %24 = getelementptr inbounds %class.G1Allocator, ptr %11, i32 0, i32 5
  store ptr null, ptr %24, align 8
  %25 = getelementptr inbounds %class.G1Allocator, ptr %11, i32 0, i32 6
  store ptr null, ptr %25, align 8
  %26 = getelementptr inbounds %class.G1Allocator, ptr %11, i32 0, i32 7
  %27 = load ptr, ptr %4, align 8
  call void @_ZN16G1HeapRegionAttrC2Eabb(ptr noundef nonnull align 1 dereferenceable(3) %5, i8 noundef signext 1, i1 noundef zeroext false, i1 noundef zeroext false)
  call void @llvm.memcpy.p0.p0.i64(ptr align 4 %6, ptr align 1 %5, i64 3, i1 false)
  %28 = load i24, ptr %6, align 4
  %29 = call noundef ptr @_ZN15G1CollectedHeap18alloc_buffer_statsE16G1HeapRegionAttr(ptr noundef nonnull align 8 dereferenceable(1488) %27, i24 %28)
  call void @_ZN16OldGCAllocRegionC2EP11G1EvacStats(ptr noundef nonnull align 8 dereferenceable(57) %26, ptr noundef %29)
  %30 = getelementptr inbounds %class.G1Allocator, ptr %11, i32 0, i32 8
  store ptr null, ptr %30, align 8
  %31 = getelementptr inbounds %class.G1Allocator, ptr %11, i32 0, i32 4
  %32 = load i64, ptr %31, align 8
  %33 = mul i64 %32, 56
  %34 = call noundef ptr @_Z12AllocateHeapm8MEMFLAGSN17AllocFailStrategy13AllocFailEnumE(i64 noundef %33, i8 noundef zeroext 5, i32 noundef 0)
  %35 = getelementptr inbounds %class.G1Allocator, ptr %11, i32 0, i32 5
  store ptr %34, ptr %35, align 8
  %36 = getelementptr inbounds %class.G1Allocator, ptr %11, i32 0, i32 4
  %37 = load i64, ptr %36, align 8
  %38 = mul i64 %37, 64
  %39 = call noundef ptr @_Z12AllocateHeapm8MEMFLAGSN17AllocFailStrategy13AllocFailEnumE(i64 noundef %38, i8 noundef zeroext 5, i32 noundef 0)
  %40 = getelementptr inbounds %class.G1Allocator, ptr %11, i32 0, i32 6
  store ptr %39, ptr %40, align 8
  %41 = load ptr, ptr %4, align 8
  call void @_ZN16G1HeapRegionAttrC2Eabb(ptr noundef nonnull align 1 dereferenceable(3) %8, i8 noundef signext 0, i1 noundef zeroext false, i1 noundef zeroext false)
  call void @llvm.memcpy.p0.p0.i64(ptr align 4 %9, ptr align 1 %8, i64 3, i1 false)
  %42 = load i24, ptr %9, align 4
  %43 = call noundef ptr @_ZN15G1CollectedHeap18alloc_buffer_statsE16G1HeapRegionAttr(ptr noundef nonnull align 8 dereferenceable(1488) %41, i24 %42)
  store ptr %43, ptr %7, align 8
  store i32 0, ptr %10, align 4
  br label %44

44:                                               ; preds = %64, %2
  %45 = load i32, ptr %10, align 4
  %46 = zext i32 %45 to i64
  %47 = getelementptr inbounds %class.G1Allocator, ptr %11, i32 0, i32 4
  %48 = load i64, ptr %47, align 8
  %49 = icmp ult i64 %46, %48
  br i1 %49, label %50, label %67

50:                                               ; preds = %44
  %51 = getelementptr inbounds %class.G1Allocator, ptr %11, i32 0, i32 5
  %52 = load ptr, ptr %51, align 8
  %53 = load i32, ptr %10, align 4
  %54 = zext i32 %53 to i64
  %55 = getelementptr inbounds %class.MutatorAllocRegion, ptr %52, i64 %54
  %56 = load i32, ptr %10, align 4
  call void @_ZN18MutatorAllocRegionC2Ej(ptr noundef nonnull align 8 dereferenceable(56) %55, i32 noundef %56)
  %57 = getelementptr inbounds %class.G1Allocator, ptr %11, i32 0, i32 6
  %58 = load ptr, ptr %57, align 8
  %59 = load i32, ptr %10, align 4
  %60 = zext i32 %59 to i64
  %61 = getelementptr inbounds %class.SurvivorGCAllocRegion, ptr %58, i64 %60
  %62 = load ptr, ptr %7, align 8
  %63 = load i32, ptr %10, align 4
  call void @_ZN21SurvivorGCAllocRegionC2EP11G1EvacStatsj(ptr noundef nonnull align 8 dereferenceable(57) %61, ptr noundef %62, i32 noundef %63)
  br label %64

64:                                               ; preds = %50
  %65 = load i32, ptr %10, align 4
  %66 = add i32 %65, 1
  store i32 %66, ptr %10, align 4
  br label %44, !llvm.loop !6

67:                                               ; preds = %44
  ret void
}