; Function Attrs: mustprogress nounwind uwtable
define hidden void @_ZN11G1AllocatorC2EP15G1CollectedHeap(ptr noundef nonnull align 8 dereferenceable(120) %0, ptr noundef %1) unnamed_addr #0 align 2 {
_ZN15G1CollectedHeap18alloc_buffer_statsE16G1HeapRegionAttr.exit18:
  store ptr %1, ptr %0, align 8
  %2 = getelementptr inbounds i8, ptr %0, i64 8
  %3 = getelementptr inbounds i8, ptr %1, i64 384
  %4 = load ptr, ptr %3, align 8
  store ptr %4, ptr %2, align 8
  %5 = getelementptr inbounds i8, ptr %0, i64 16
  store i8 0, ptr %5, align 8
  %6 = getelementptr inbounds i8, ptr %0, i64 17
  store i8 0, ptr %6, align 1
  %7 = getelementptr inbounds i8, ptr %0, i64 24
  %8 = tail call noundef i32 @_ZNK6G1NUMA16num_active_nodesEv(ptr noundef nonnull align 8 dereferenceable(56) %4) #15
  %9 = zext i32 %8 to i64
  store i64 %9, ptr %7, align 8
  %10 = getelementptr inbounds i8, ptr %0, i64 32
  %11 = getelementptr inbounds i8, ptr %0, i64 40
  %12 = getelementptr inbounds i8, ptr %0, i64 48
  %13 = getelementptr inbounds i8, ptr %1, i64 808
  tail call void @llvm.memset.p0.i64(ptr noundef nonnull align 8 dereferenceable(16) %10, i8 0, i64 16, i1 false)
  tail call void @_ZN13G1AllocRegionC2EPKcj(ptr noundef nonnull align 8 dereferenceable(36) %12, ptr noundef nonnull @.str.14, i32 noundef -2) #15
  %14 = getelementptr inbounds i8, ptr %0, i64 88
  store i64 0, ptr %14, align 8
  %15 = getelementptr inbounds i8, ptr %0, i64 96
  store ptr %13, ptr %15, align 8
  %16 = getelementptr inbounds i8, ptr %0, i64 104
  store i8 1, ptr %16, align 8
  store ptr getelementptr inbounds inrange(-16, 40) (i8, ptr @_ZTV16OldGCAllocRegion, i64 16), ptr %12, align 8
  %17 = getelementptr inbounds i8, ptr %0, i64 112
  store ptr null, ptr %17, align 8
  %18 = load i64, ptr %7, align 8
  %19 = mul i64 %18, 56
  %20 = tail call noundef ptr @_Z12AllocateHeapm8MEMFLAGSN17AllocFailStrategy13AllocFailEnumE(i64 noundef %19, i8 noundef zeroext 5, i32 noundef 0) #15
  store ptr %20, ptr %10, align 8
  %21 = load i64, ptr %7, align 8
  %22 = shl i64 %21, 6
  %23 = tail call noundef ptr @_Z12AllocateHeapm8MEMFLAGSN17AllocFailStrategy13AllocFailEnumE(i64 noundef %22, i8 noundef zeroext 5, i32 noundef 0) #15
  store ptr %23, ptr %11, align 8
  %24 = getelementptr inbounds i8, ptr %1, i64 664
  %25 = load i64, ptr %7, align 8
  %.not = icmp eq i64 %25, 0
  br i1 %.not, label %._crit_edge, label %.lr.ph

.lr.ph:                                           ; preds = %_ZN15G1CollectedHeap18alloc_buffer_statsE16G1HeapRegionAttr.exit18, %.lr.ph
  %26 = phi i64 [ %37, %.lr.ph ], [ 0, %_ZN15G1CollectedHeap18alloc_buffer_statsE16G1HeapRegionAttr.exit18 ]
  %.022 = phi i32 [ %36, %.lr.ph ], [ 0, %_ZN15G1CollectedHeap18alloc_buffer_statsE16G1HeapRegionAttr.exit18 ]
  %27 = load ptr, ptr %10, align 8
  %28 = getelementptr inbounds %class.MutatorAllocRegion, ptr %27, i64 %26
  tail call void @_ZN13G1AllocRegionC2EPKcj(ptr noundef nonnull align 8 dereferenceable(36) %28, ptr noundef nonnull @.str.15, i32 noundef %.022) #15
  store ptr getelementptr inbounds inrange(-16, 40) (i8, ptr @_ZTV18MutatorAllocRegion, i64 16), ptr %28, align 8
  %29 = getelementptr inbounds i8, ptr %28, i64 40
  store i64 0, ptr %29, align 8
  %30 = getelementptr inbounds i8, ptr %28, i64 48
  store volatile ptr null, ptr %30, align 8
  %31 = load ptr, ptr %11, align 8
  %32 = getelementptr inbounds %class.SurvivorGCAllocRegion, ptr %31, i64 %26
  tail call void @_ZN13G1AllocRegionC2EPKcj(ptr noundef nonnull align 8 dereferenceable(36) %32, ptr noundef nonnull @.str.16, i32 noundef %.022) #15
  %33 = getelementptr inbounds i8, ptr %32, i64 40
  store i64 0, ptr %33, align 8
  %34 = getelementptr inbounds i8, ptr %32, i64 48
  store ptr %24, ptr %34, align 8
  %35 = getelementptr inbounds i8, ptr %32, i64 56
  store i8 0, ptr %35, align 8
  store ptr getelementptr inbounds inrange(-16, 40) (i8, ptr @_ZTV21SurvivorGCAllocRegion, i64 16), ptr %32, align 8
  %36 = add i32 %.022, 1
  %37 = zext i32 %36 to i64
  %38 = load i64, ptr %7, align 8
  %39 = icmp ugt i64 %38, %37
  br i1 %39, label %.lr.ph, label %._crit_edge, !llvm.loop !6

._crit_edge:                                      ; preds = %.lr.ph, %_ZN15G1CollectedHeap18alloc_buffer_statsE16G1HeapRegionAttr.exit18
  ret void
}